target datalayout = "e-m:e-p270:32:32-p271:32:32-p272:64:64-i64:64-i128:128-f80:128-n8:16:32:64-S128"
target triple = "x86_64-pc-linux-gnu"

%struct.lv_color_t = type { i8, i8, i8 }
%struct.lv_draw_dsc_base_t = type { ptr, i32, i32, i32, ptr, i64, ptr }
%struct.lv_draw_label_dsc_t = type { %struct.lv_draw_dsc_base_t, ptr, i32, ptr, i32, i32, %struct.lv_color_t, %struct.lv_color_t, %struct.lv_color_t, i32, i32, i32, i32, i32, i8, i32, i32, i32, i8, ptr }

; Function Attrs: nounwind uwtable
define void @lv_draw_sw_label(ptr noundef %0, ptr noundef %1, ptr noundef %2) #0 {
  %4 = alloca ptr, align 8
  %5 = alloca ptr, align 8
  %6 = alloca ptr, align 8
  store ptr %0, ptr %4, align 8, !tbaa !3
  store ptr %1, ptr %5, align 8, !tbaa !8
  store ptr %2, ptr %6, align 8, !tbaa !8
  %7 = load ptr, ptr %5, align 8, !tbaa !8
  %8 = getelementptr inbounds nuw %struct.lv_draw_label_dsc_t, ptr %7, i32 0, i32 14
  %9 = load i8, ptr %8, align 8, !tbaa !74
  %10 = zext i8 %9 to i32
  %11 = icmp sle i32 %10, 2
  br i1 %11, label %12, label %13

12:                                               ; preds = %3
  br label %17

13:                                               ; preds = %3
  %14 = load ptr, ptr %4, align 8, !tbaa !3
  %15 = load ptr, ptr %5, align 8, !tbaa !8
  %16 = load ptr, ptr %6, align 8, !tbaa !8
  call void @lv_draw_label_iterate_characters(ptr noundef %14, ptr noundef %15, ptr noundef %16, ptr noundef @draw_letter_cb)
  br label %17

17:                                               ; preds = %13, %12
  ret void
}