; Function Attrs: nounwind uwtable
define void @lv_draw_sw_label(ptr noundef %0, ptr noundef %1, ptr noundef %2) local_unnamed_addr #0 {
  %4 = getelementptr inbounds nuw i8, ptr %1, i64 112
  %5 = load i8, ptr %4, align 8, !tbaa !67
  %6 = icmp ult i8 %5, 3
  br i1 %6, label %8, label %7

7:                                                ; preds = %3
  tail call void @lv_draw_label_iterate_characters(ptr noundef %0, ptr noundef nonnull %1, ptr noundef %2, ptr noundef nonnull @draw_letter_cb) #4
  br label %8

8:                                                ; preds = %3, %7
  ret void
}